target datalayout = "e-m:e-p270:32:32-p271:32:32-p272:64:64-i64:64-i128:128-f80:128-n8:16:32:64-S128"
target triple = "x86_64-pc-linux-gnu"

%struct.XLogPageReadPrivate = type { ptr, i32 }
%struct.XLogReaderRoutine = type { ptr, ptr, ptr }
%struct.XLogReaderState = type { %struct.XLogReaderRoutine, i64, ptr, i64, i64, i64, i64, i64, i64, i64, i64, ptr, ptr, i64, i8, ptr, ptr, ptr, ptr, ptr, i32, %struct.WALSegmentContext, %struct.WALOpenSegment, i32, i64, i32, i64, i32, i64, i32, ptr, i32, ptr, i8, i8 }
%struct.WALSegmentContext = type { [1024 x i8], i32 }
%struct.WALOpenSegment = type { i32, i64, i32 }

@WalSegSz = external global i32, align 4
@.str = private unnamed_addr constant [55 x i8] c"out of memory while allocating a WAL reading processor\00", align 1
@.str.1 = private unnamed_addr constant [39 x i8] c"could not read WAL record at %X/%X: %s\00", align 1
@.str.2 = private unnamed_addr constant [35 x i8] c"could not read WAL record at %X/%X\00", align 1
@xlogreadfd = internal global i32 -1, align 4

; Function Attrs: nounwind uwtable
define dso_local i64 @readOneRecord(ptr noundef %0, i64 noundef %1, i32 noundef %2, ptr noundef %3) #0 {
  %5 = alloca ptr, align 8
  %6 = alloca i64, align 8
  %7 = alloca i32, align 4
  %8 = alloca ptr, align 8
  %9 = alloca ptr, align 8
  %10 = alloca ptr, align 8
  %11 = alloca ptr, align 8
  %12 = alloca %struct.XLogPageReadPrivate, align 8
  %13 = alloca i64, align 8
  %14 = alloca %struct.XLogReaderRoutine, align 8
  %15 = alloca i32, align 4
  %16 = alloca i32, align 4
  store ptr %0, ptr %5, align 8
  store i64 %1, ptr %6, align 8
  store i32 %2, ptr %7, align 4
  store ptr %3, ptr %8, align 8
  call void @llvm.lifetime.start.p0(i64 8, ptr %9) #8
  call void @llvm.lifetime.start.p0(i64 8, ptr %10) #8
  call void @llvm.lifetime.start.p0(i64 8, ptr %11) #8
  call void @llvm.lifetime.start.p0(i64 16, ptr %12) #8
  call void @llvm.lifetime.start.p0(i64 8, ptr %13) #8
  %17 = load i32, ptr %7, align 4
  %18 = getelementptr inbounds nuw %struct.XLogPageReadPrivate, ptr %12, i32 0, i32 1
  store i32 %17, ptr %18, align 8
  %19 = load ptr, ptr %8, align 8
  %20 = getelementptr inbounds nuw %struct.XLogPageReadPrivate, ptr %12, i32 0, i32 0
  store ptr %19, ptr %20, align 8
  %21 = load i32, ptr @WalSegSz, align 4
  %22 = load ptr, ptr %5, align 8
  %23 = getelementptr inbounds nuw %struct.XLogReaderRoutine, ptr %14, i32 0, i32 0
  store ptr @SimpleXLogPageRead, ptr %23, align 8
  %24 = getelementptr inbounds nuw %struct.XLogReaderRoutine, ptr %14, i32 0, i32 1
  store ptr null, ptr %24, align 8
  %25 = getelementptr inbounds nuw %struct.XLogReaderRoutine, ptr %14, i32 0, i32 2
  store ptr null, ptr %25, align 8
  %26 = call ptr @XLogReaderAllocate(i32 noundef %21, ptr noundef %22, ptr noundef %14, ptr noundef %12)
  store ptr %26, ptr %10, align 8
  %27 = load ptr, ptr %10, align 8
  %28 = icmp eq ptr %27, null
  br i1 %28, label %29, label %33

29:                                               ; preds = %4
  br label %30

30:                                               ; preds = %29
  call void (i32, i32, ptr, ...) @pg_log_generic(i32 noundef 4, i32 noundef 0, ptr noundef @.str)
  call void @exit(i32 noundef 1) #9
  unreachable

31:                                               ; No predecessors!
  br label %32

32:                                               ; preds = %31
  br label %33

33:                                               ; preds = %32, %4
  %34 = load ptr, ptr %10, align 8
  %35 = load i64, ptr %6, align 8
  call void @XLogBeginRead(ptr noundef %34, i64 noundef %35)
  %36 = load ptr, ptr %10, align 8
  %37 = call ptr @XLogReadRecord(ptr noundef %36, ptr noundef %11)
  store ptr %37, ptr %9, align 8
  %38 = load ptr, ptr %9, align 8
  %39 = icmp eq ptr %38, null
  br i1 %39, label %40, label %69

40:                                               ; preds = %33
  %41 = load ptr, ptr %11, align 8
  %42 = icmp ne ptr %41, null
  br i1 %42, label %43, label %56

43:                                               ; preds = %40
  br label %44

44:                                               ; preds = %43
  br label %45

45:                                               ; preds = %44
  br label %46

46:                                               ; preds = %45
  br label %47

47:                                               ; preds = %46
  store i32 1, ptr %15, align 4
  %48 = load i64, ptr %6, align 8
  %49 = lshr i64 %48, 32
  %50 = trunc i64 %49 to i32
  %51 = load i64, ptr %6, align 8
  %52 = trunc i64 %51 to i32
  %53 = load ptr, ptr %11, align 8
  call void (i32, i32, ptr, ...) @pg_log_generic(i32 noundef 4, i32 noundef 0, ptr noundef @.str.1, i32 noundef %50, i32 noundef %52, ptr noundef %53)
  call void @exit(i32 noundef 1) #9
  unreachable

54:                                               ; No predecessors!
  br label %55

55:                                               ; preds = %54
  br label %68

56:                                               ; preds = %40
  br label %57

57:                                               ; preds = %56
  br label %58

58:                                               ; preds = %57
  br label %59

59:                                               ; preds = %58
  br label %60

60:                                               ; preds = %59
  store i32 1, ptr %16, align 4
  %61 = load i64, ptr %6, align 8
  %62 = lshr i64 %61, 32
  %63 = trunc i64 %62 to i32
  %64 = load i64, ptr %6, align 8
  %65 = trunc i64 %64 to i32
  call void (i32, i32, ptr, ...) @pg_log_generic(i32 noundef 4, i32 noundef 0, ptr noundef @.str.2, i32 noundef %63, i32 noundef %65)
  call void @exit(i32 noundef 1) #9
  unreachable

66:                                               ; No predecessors!
  br label %67

67:                                               ; preds = %66
  br label %68

68:                                               ; preds = %67, %55
  br label %69

69:                                               ; preds = %68, %33
  %70 = load ptr, ptr %10, align 8
  %71 = getelementptr inbounds nuw %struct.XLogReaderState, ptr %70, i32 0, i32 4
  %72 = load i64, ptr %71, align 8
  store i64 %72, ptr %13, align 8
  %73 = load ptr, ptr %10, align 8
  call void @XLogReaderFree(ptr noundef %73)
  %74 = load i32, ptr @xlogreadfd, align 4
  %75 = icmp ne i32 %74, -1
  br i1 %75, label %76, label %79

76:                                               ; preds = %69
  %77 = load i32, ptr @xlogreadfd, align 4
  %78 = call i32 @close(i32 noundef %77)
  store i32 -1, ptr @xlogreadfd, align 4
  br label %79

79:                                               ; preds = %76, %69
  %80 = load i64, ptr %13, align 8
  call void @llvm.lifetime.end.p0(i64 8, ptr %13) #8
  call void @llvm.lifetime.end.p0(i64 16, ptr %12) #8
  call void @llvm.lifetime.end.p0(i64 8, ptr %11) #8
  call void @llvm.lifetime.end.p0(i64 8, ptr %10) #8
  call void @llvm.lifetime.end.p0(i64 8, ptr %9) #8
  ret i64 %80
}