; Function Attrs: nounwind uwtable
define dso_local i64 @readOneRecord(ptr noundef %0, i64 noundef %1, i32 noundef %2, ptr noundef %3) local_unnamed_addr #0 {
  %5 = alloca ptr, align 8
  %6 = alloca %struct.XLogPageReadPrivate, align 8
  %7 = alloca %struct.XLogReaderRoutine, align 8
  call void @llvm.lifetime.start.p0(i64 8, ptr nonnull %5) #7
  call void @llvm.lifetime.start.p0(i64 16, ptr nonnull %6) #7
  %8 = getelementptr inbounds nuw i8, ptr %6, i64 8
  store i32 %2, ptr %8, align 8
  store ptr %3, ptr %6, align 8
  %9 = load i32, ptr @WalSegSz, align 4
  store ptr @SimpleXLogPageRead, ptr %7, align 8
  %10 = getelementptr inbounds nuw i8, ptr %7, i64 8
  call void @llvm.memset.p0.i64(ptr noundef nonnull align 8 dereferenceable(16) %10, i8 0, i64 16, i1 false)
  %11 = call ptr @XLogReaderAllocate(i32 noundef %9, ptr noundef %0, ptr noundef nonnull %7, ptr noundef nonnull %6) #7
  %12 = icmp eq ptr %11, null
  br i1 %12, label %13, label %14

13:                                               ; preds = %4
  call void (i32, i32, ptr, ...) @pg_log_generic(i32 noundef 4, i32 noundef 0, ptr noundef nonnull @.str) #7
  call void @exit(i32 noundef 1) #8
  unreachable

14:                                               ; preds = %4
  call void @XLogBeginRead(ptr noundef nonnull %11, i64 noundef %1) #7
  %15 = call ptr @XLogReadRecord(ptr noundef nonnull %11, ptr noundef nonnull %5) #7
  %16 = icmp eq ptr %15, null
  br i1 %16, label %17, label %24

17:                                               ; preds = %14
  %18 = load ptr, ptr %5, align 8
  %.not16 = icmp eq ptr %18, null
  %19 = lshr i64 %1, 32
  %20 = trunc nuw i64 %19 to i32
  %21 = trunc i64 %1 to i32
  br i1 %.not16, label %23, label %22

22:                                               ; preds = %17
  call void (i32, i32, ptr, ...) @pg_log_generic(i32 noundef 4, i32 noundef 0, ptr noundef nonnull @.str.1, i32 noundef %20, i32 noundef %21, ptr noundef nonnull %18) #7
  call void @exit(i32 noundef 1) #8
  unreachable

23:                                               ; preds = %17
  call void (i32, i32, ptr, ...) @pg_log_generic(i32 noundef 4, i32 noundef 0, ptr noundef nonnull @.str.2, i32 noundef %20, i32 noundef %21) #7
  call void @exit(i32 noundef 1) #8
  unreachable

24:                                               ; preds = %14
  %25 = getelementptr inbounds nuw i8, ptr %11, i64 48
  %26 = load i64, ptr %25, align 8
  call void @XLogReaderFree(ptr noundef nonnull %11) #7
  %27 = load i32, ptr @xlogreadfd, align 4
  %.not = icmp eq i32 %27, -1
  br i1 %.not, label %30, label %28

28:                                               ; preds = %24
  %29 = call i32 @close(i32 noundef %27) #7
  store i32 -1, ptr @xlogreadfd, align 4
  br label %30

30:                                               ; preds = %28, %24
  call void @llvm.lifetime.end.p0(i64 16, ptr nonnull %6) #7
  call void @llvm.lifetime.end.p0(i64 8, ptr nonnull %5) #7
  ret i64 %26
}